; Function Attrs: nofree norecurse nosync nounwind memory(argmem: readwrite) uwtable
define hidden void @cfl_subsample_hbd_420_4x4_c(ptr nocapture noundef readonly %0, i32 noundef %1, ptr nocapture noundef writeonly %2) #5 {
  %invariant.op.i = add i32 %1, 1
  %4 = shl i32 %1, 1
  %5 = sext i32 %4 to i64
  %6 = sext i32 %1 to i64
  br label %.preheader.us.i

.preheader.us.i:                                  ; preds = %._crit_edge.us.i, %3
  %.026.us.i = phi ptr [ %28, %._crit_edge.us.i ], [ %0, %3 ]
  %7 = phi i1 [ false, %._crit_edge.us.i ], [ true, %3 ]
  %.02224.us.i = phi ptr [ %29, %._crit_edge.us.i ], [ %2, %3 ]
  br label %8

8:                                                ; preds = %8, %.preheader.us.i
  %9 = phi i1 [ true, %.preheader.us.i ], [ false, %8 ]
  %indvars.iv.i = phi i64 [ 0, %.preheader.us.i ], [ 2, %8 ]
  %10 = add nsw i64 %indvars.iv.i, %6
  %11 = getelementptr inbounds i16, ptr %.026.us.i, i64 %indvars.iv.i
  %12 = load i16, ptr %11, align 2
  %13 = or disjoint i64 %indvars.iv.i, 1
  %14 = getelementptr inbounds i16, ptr %.026.us.i, i64 %13
  %15 = load i16, ptr %14, align 2
  %16 = add i16 %15, %12
  %17 = getelementptr inbounds i16, ptr %.026.us.i, i64 %10
  %18 = load i16, ptr %17, align 2
  %19 = add i16 %16, %18
  %20 = trunc nuw nsw i64 %indvars.iv.i to i32
  %.reass.us.i = add i32 %invariant.op.i, %20
  %21 = sext i32 %.reass.us.i to i64
  %22 = getelementptr inbounds i16, ptr %.026.us.i, i64 %21
  %23 = load i16, ptr %22, align 2
  %24 = add i16 %19, %23
  %25 = shl i16 %24, 1
  %26 = lshr exact i64 %indvars.iv.i, 1
  %27 = getelementptr inbounds i16, ptr %.02224.us.i, i64 %26
  store i16 %25, ptr %27, align 2
  br i1 %9, label %8, label %._crit_edge.us.i, !llvm.loop !25

._crit_edge.us.i:                                 ; preds = %8
  %28 = getelementptr inbounds i16, ptr %.026.us.i, i64 %5
  %29 = getelementptr inbounds i8, ptr %.02224.us.i, i64 64
  br i1 %7, label %.preheader.us.i, label %cfl_luma_subsampling_420_hbd_c.exit, !llvm.loop !26

cfl_luma_subsampling_420_hbd_c.exit:              ; preds = %._crit_edge.us.i
  ret void
}